target datalayout = "e-m:e-p270:32:32-p271:32:32-p272:64:64-i64:64-i128:128-f80:128-n8:16:32:64-S128"
target triple = "x86_64-pc-linux-gnu"

%"struct.open_spiel::GameType" = type <{ %"class.std::__cxx11::basic_string", %"class.std::__cxx11::basic_string", i32, i32, i32, i32, i32, i32, i32, i8, i8, i8, i8, %"class.std::map", i8, i8, [6 x i8] }>
%"class.std::__cxx11::basic_string" = type { %"struct.std::__cxx11::basic_string<char>::_Alloc_hider", i64, %union.anon }
%"struct.std::__cxx11::basic_string<char>::_Alloc_hider" = type { ptr }
%union.anon = type { i64, [8 x i8] }
%"class.std::map" = type { %"class.std::_Rb_tree" }
%"class.std::_Rb_tree" = type { %"struct.std::_Rb_tree<std::__cxx11::basic_string<char>, std::pair<const std::__cxx11::basic_string<char>, open_spiel::GameParameter>, std::_Select1st<std::pair<const std::__cxx11::basic_string<char>, open_spiel::GameParameter>>, std::less<std::__cxx11::basic_string<char>>>::_Rb_tree_impl" }
%"struct.std::_Rb_tree<std::__cxx11::basic_string<char>, std::pair<const std::__cxx11::basic_string<char>, open_spiel::GameParameter>, std::_Select1st<std::pair<const std::__cxx11::basic_string<char>, open_spiel::GameParameter>>, std::less<std::__cxx11::basic_string<char>>>::_Rb_tree_impl" = type { [8 x i8], %"struct.std::_Rb_tree_header" }
%"struct.std::_Rb_tree_header" = type { %"struct.std::_Rb_tree_node_base", i64 }
%"struct.std::_Rb_tree_node_base" = type { i32, ptr, ptr, ptr }
%"class.std::shared_ptr" = type { %"class.std::__shared_ptr" }
%"class.std::__shared_ptr" = type { ptr, %"class.std::__shared_count" }
%"class.std::__shared_count" = type { ptr }
%"class.std::vector" = type { %"struct.std::_Vector_base" }
%"struct.std::_Vector_base" = type { %"struct.std::_Vector_base<open_spiel::State::PlayerAction, std::allocator<open_spiel::State::PlayerAction>>::_Vector_impl" }
%"struct.std::_Vector_base<open_spiel::State::PlayerAction, std::allocator<open_spiel::State::PlayerAction>>::_Vector_impl" = type { %"struct.std::_Vector_base<open_spiel::State::PlayerAction, std::allocator<open_spiel::State::PlayerAction>>::_Vector_impl_data" }
%"struct.std::_Vector_base<open_spiel::State::PlayerAction, std::allocator<open_spiel::State::PlayerAction>>::_Vector_impl_data" = type { ptr, ptr, ptr }
%"class.open_spiel::State" = type <{ ptr, %"class.std::shared_ptr", i32, i32, %"class.std::vector", i32, [4 x i8] }>
%"class.open_spiel::gin_rummy::GinRummyGame" = type <{ %"class.open_spiel::Game", %"class.std::shared_ptr.82", %"class.std::shared_ptr.82", i8, [3 x i8], i32, i32, i32, i32, i32, i32, [4 x i8] }>
%"class.open_spiel::Game" = type { ptr, %"class.std::enable_shared_from_this", %"struct.open_spiel::GameType", %"class.std::map", %"class.std::map", %"class.absl::debian2::Mutex" }
%"class.std::enable_shared_from_this" = type { %"class.std::weak_ptr" }
%"class.std::weak_ptr" = type { %"class.std::__weak_ptr" }
%"class.std::__weak_ptr" = type { ptr, %"class.std::__weak_count" }
%"class.std::__weak_count" = type { ptr }
%"class.absl::debian2::Mutex" = type { %"struct.std::atomic" }
%"struct.std::atomic" = type { %"struct.std::__atomic_base" }
%"struct.std::__atomic_base" = type { i64 }
%"class.std::shared_ptr.82" = type { %"class.std::__shared_ptr.83" }
%"class.std::__shared_ptr.83" = type { ptr, %"class.std::__shared_count" }
%"class.absl::debian2::Span" = type { ptr, i64 }
%"class.open_spiel::ContiguousAllocator" = type <{ %"class.open_spiel::Allocator", %"class.absl::debian2::Span", i32, [4 x i8] }>
%"class.open_spiel::Allocator" = type { ptr }

@_ZTVN10open_spiel19ContiguousAllocatorE = external unnamed_addr constant { [5 x ptr] }, align 8
@_ZTVN10open_spiel9AllocatorE = linkonce_odr unnamed_addr constant { [5 x ptr] } { [5 x ptr] [ptr null, ptr @_ZTIN10open_spiel9AllocatorE, ptr @__cxa_pure_virtual, ptr @_ZN10open_spiel9AllocatorD2Ev, ptr @_ZN10open_spiel9AllocatorD0Ev] }, comdat, align 8

; Function Attrs: mustprogress nounwind uwtable
define linkonce_odr void @_ZSt9__fill_a1IPfiEN9__gnu_cxx11__enable_ifIXsr11__is_scalarIT0_EE7__valueEvE6__typeET_S6_RKS3_(ptr noundef %0, ptr noundef %1, ptr noundef nonnull align 4 dereferenceable(4) %2) #5 comdat {
  %4 = alloca ptr, align 8
  %5 = alloca ptr, align 8
  %6 = alloca ptr, align 8
  %7 = alloca i32, align 4
  store ptr %0, ptr %4, align 8
  store ptr %1, ptr %5, align 8
  store ptr %2, ptr %6, align 8
  %8 = load ptr, ptr %6, align 8
  %9 = load i32, ptr %8, align 4
  store i32 %9, ptr %7, align 4
  br label %10

10:                                               ; preds = %18, %3
  %11 = load ptr, ptr %4, align 8
  %12 = load ptr, ptr %5, align 8
  %13 = icmp ne ptr %11, %12
  br i1 %13, label %14, label %21

14:                                               ; preds = %10
  %15 = load i32, ptr %7, align 4
  %16 = sitofp i32 %15 to float
  %17 = load ptr, ptr %4, align 8
  store float %16, ptr %17, align 4
  br label %18

18:                                               ; preds = %14
  %19 = load ptr, ptr %4, align 8
  %20 = getelementptr inbounds float, ptr %19, i32 1
  store ptr %20, ptr %4, align 8
  br label %10, !llvm.loop !22

21:                                               ; preds = %10
  ret void
}

; Function Attrs: mustprogress nounwind uwtable
define linkonce_odr noundef ptr @_ZNK4absl7debian24SpanIfE3endEv(ptr noundef nonnull align 8 dereferenceable(16) %0) #5 comdat align 2 {
  %2 = alloca ptr, align 8
  store ptr %0, ptr %2, align 8
  %3 = load ptr, ptr %2, align 8
  %4 = call noundef ptr @_ZNK4absl7debian24SpanIfE4dataEv(ptr noundef nonnull align 8 dereferenceable(16) %3) #3
  %5 = call noundef i64 @_ZNK4absl7debian24SpanIfE4sizeEv(ptr noundef nonnull align 8 dereferenceable(16) %3) #3
  %6 = getelementptr inbounds float, ptr %4, i64 %5
  ret ptr %6
}

; Function Attrs: mustprogress nounwind uwtable
define linkonce_odr noundef ptr @_ZNK4absl7debian24SpanIfE5beginEv(ptr noundef nonnull align 8 dereferenceable(16) %0) #5 comdat align 2 {
  %2 = alloca ptr, align 8
  store ptr %0, ptr %2, align 8
  %3 = load ptr, ptr %2, align 8
  %4 = call noundef ptr @_ZNK4absl7debian24SpanIfE4dataEv(ptr noundef nonnull align 8 dereferenceable(16) %3) #3
  ret ptr %4
}

; Function Attrs: mustprogress nounwind uwtable
define linkonce_odr noundef ptr @_ZNK4absl7debian24SpanIfE4dataEv(ptr noundef nonnull align 8 dereferenceable(16) %0) #5 comdat align 2 {
  %2 = alloca ptr, align 8
  store ptr %0, ptr %2, align 8
  %3 = load ptr, ptr %2, align 8
  %4 = getelementptr inbounds nuw %"class.absl::debian2::Span", ptr %3, i32 0, i32 0
  %5 = load ptr, ptr %4, align 8
  ret ptr %5
}

; Function Attrs: mustprogress uwtable
define linkonce_odr void @_ZSt8__fill_aIPfiEvT_S1_RKT0_(ptr noundef %0, ptr noundef %1, ptr noundef nonnull align 4 dereferenceable(4) %2) #4 comdat {
  %4 = alloca ptr, align 8
  %5 = alloca ptr, align 8
  %6 = alloca ptr, align 8
  store ptr %0, ptr %4, align 8
  store ptr %1, ptr %5, align 8
  store ptr %2, ptr %6, align 8
  %7 = load ptr, ptr %4, align 8
  %8 = load ptr, ptr %5, align 8
  %9 = load ptr, ptr %6, align 8
  call void @_ZSt9__fill_a1IPfiEN9__gnu_cxx11__enable_ifIXsr11__is_scalarIT0_EE7__valueEvE6__typeET_S6_RKS3_(ptr noundef %7, ptr noundef %8, ptr noundef nonnull align 4 dereferenceable(4) %9)
  ret void
}

; Function Attrs: mustprogress nounwind uwtable
define linkonce_odr noundef ptr @_ZSt3endIN4absl7debian24SpanIfEEEDTcldtfp_3endEERT_(ptr noundef nonnull align 8 dereferenceable(16) %0) #5 comdat {
  %2 = alloca ptr, align 8
  store ptr %0, ptr %2, align 8
  %3 = load ptr, ptr %2, align 8
  %4 = call noundef ptr @_ZNK4absl7debian24SpanIfE3endEv(ptr noundef nonnull align 8 dereferenceable(16) %3) #3
  ret ptr %4
}

; Function Attrs: mustprogress nounwind uwtable
define linkonce_odr noundef ptr @_ZSt5beginIN4absl7debian24SpanIfEEEDTcldtfp_5beginEERT_(ptr noundef nonnull align 8 dereferenceable(16) %0) #5 comdat {
  %2 = alloca ptr, align 8
  store ptr %0, ptr %2, align 8
  %3 = load ptr, ptr %2, align 8
  %4 = call noundef ptr @_ZNK4absl7debian24SpanIfE5beginEv(ptr noundef nonnull align 8 dereferenceable(16) %3) #3
  ret ptr %4
}

; Function Attrs: mustprogress nounwind uwtable
define linkonce_odr noundef ptr @_ZN4absl7debian213span_internal11GetDataImplINS0_4SpanIfEEEEDTcldtfp_4dataEERT_c(ptr noundef nonnull align 8 dereferenceable(16) %0, i8 noundef signext %1) #5 comdat {
  %3 = alloca ptr, align 8
  %4 = alloca i8, align 1
  store ptr %0, ptr %3, align 8
  store i8 %1, ptr %4, align 1
  %5 = load ptr, ptr %3, align 8
  %6 = call noundef ptr @_ZNK4absl7debian24SpanIfE4dataEv(ptr noundef nonnull align 8 dereferenceable(16) %5) #3
  ret ptr %6
}

; Function Attrs: mustprogress nounwind uwtable
define linkonce_odr noundef ptr @_ZNKSt12__shared_ptrIN10open_spiel9gin_rummy16GinRummyObserverELN9__gnu_cxx12_Lock_policyE2EE3getEv(ptr noundef nonnull align 8 dereferenceable(16) %0) #5 comdat align 2 {
  %2 = alloca ptr, align 8
  store ptr %0, ptr %2, align 8
  %3 = load ptr, ptr %2, align 8
  %4 = getelementptr inbounds nuw %"class.std::__shared_ptr.83", ptr %3, i32 0, i32 0
  %5 = load ptr, ptr %4, align 8
  ret ptr %5
}

; Function Attrs: mustprogress nounwind uwtable
define linkonce_odr noundef ptr @_ZNKSt12__shared_ptrIKN10open_spiel4GameELN9__gnu_cxx12_Lock_policyE2EE3getEv(ptr noundef nonnull align 8 dereferenceable(16) %0) #5 comdat align 2 {
  %2 = alloca ptr, align 8
  store ptr %0, ptr %2, align 8
  %3 = load ptr, ptr %2, align 8
  %4 = getelementptr inbounds nuw %"class.std::__shared_ptr", ptr %3, i32 0, i32 0
  %5 = load ptr, ptr %4, align 8
  ret ptr %5
}

; Function Attrs: mustprogress uwtable
define linkonce_odr void @_ZSt4fillIPfiEvT_S1_RKT0_(ptr noundef %0, ptr noundef %1, ptr noundef nonnull align 4 dereferenceable(4) %2) #4 comdat {
  %4 = alloca ptr, align 8
  %5 = alloca ptr, align 8
  %6 = alloca ptr, align 8
  store ptr %0, ptr %4, align 8
  store ptr %1, ptr %5, align 8
  store ptr %2, ptr %6, align 8
  %7 = load ptr, ptr %4, align 8
  %8 = load ptr, ptr %5, align 8
  %9 = load ptr, ptr %6, align 8
  call void @_ZSt8__fill_aIPfiEvT_S1_RKT0_(ptr noundef %7, ptr noundef %8, ptr noundef nonnull align 4 dereferenceable(4) %9)
  ret void
}

; Function Attrs: mustprogress uwtable
define linkonce_odr noundef ptr @_ZN4absl7debian228container_algorithm_internal5c_endINS0_4SpanIfEEEEDTcl5beginclsr3stdE7declvalIRT_EEEES6_(ptr noundef nonnull align 8 dereferenceable(16) %0) #4 comdat {
  %2 = alloca ptr, align 8
  store ptr %0, ptr %2, align 8
  %3 = load ptr, ptr %2, align 8
  %4 = call noundef ptr @_ZSt3endIN4absl7debian24SpanIfEEEDTcldtfp_3endEERT_(ptr noundef nonnull align 8 dereferenceable(16) %3)
  ret ptr %4
}

; Function Attrs: mustprogress uwtable
define linkonce_odr noundef ptr @_ZN4absl7debian228container_algorithm_internal7c_beginINS0_4SpanIfEEEEDTcl5beginclsr3stdE7declvalIRT_EEEES6_(ptr noundef nonnull align 8 dereferenceable(16) %0) #4 comdat {
  %2 = alloca ptr, align 8
  store ptr %0, ptr %2, align 8
  %3 = load ptr, ptr %2, align 8
  %4 = call noundef ptr @_ZSt5beginIN4absl7debian24SpanIfEEEDTcldtfp_5beginEERT_(ptr noundef nonnull align 8 dereferenceable(16) %3)
  ret ptr %4
}

; Function Attrs: mustprogress nounwind uwtable
define linkonce_odr void @_ZN4absl7debian24SpanIfEC2EPfm(ptr noundef nonnull align 8 dereferenceable(16) %0, ptr noundef %1, i64 noundef %2) unnamed_addr #5 comdat align 2 {
  %4 = alloca ptr, align 8
  %5 = alloca ptr, align 8
  %6 = alloca i64, align 8
  store ptr %0, ptr %4, align 8
  store ptr %1, ptr %5, align 8
  store i64 %2, ptr %6, align 8
  %7 = load ptr, ptr %4, align 8
  %8 = getelementptr inbounds nuw %"class.absl::debian2::Span", ptr %7, i32 0, i32 0
  %9 = load ptr, ptr %5, align 8
  store ptr %9, ptr %8, align 8
  %10 = getelementptr inbounds nuw %"class.absl::debian2::Span", ptr %7, i32 0, i32 1
  %11 = load i64, ptr %6, align 8
  store i64 %11, ptr %10, align 8
  ret void
}

; Function Attrs: mustprogress nounwind uwtable
define linkonce_odr noundef i64 @_ZNK4absl7debian24SpanIfE4sizeEv(ptr noundef nonnull align 8 dereferenceable(16) %0) #5 comdat align 2 {
  %2 = alloca ptr, align 8
  store ptr %0, ptr %2, align 8
  %3 = load ptr, ptr %2, align 8
  %4 = getelementptr inbounds nuw %"class.absl::debian2::Span", ptr %3, i32 0, i32 1
  %5 = load i64, ptr %4, align 8
  ret i64 %5
}

; Function Attrs: mustprogress nounwind uwtable
define linkonce_odr noundef ptr @_ZN4absl7debian213span_internal7GetDataINS0_4SpanIfEEEEDTcl11GetDataImplfp_Li0EEERT_(ptr noundef nonnull align 8 dereferenceable(16) %0) #5 comdat {
  %2 = alloca ptr, align 8
  store ptr %0, ptr %2, align 8
  %3 = load ptr, ptr %2, align 8
  %4 = call noundef ptr @_ZN4absl7debian213span_internal11GetDataImplINS0_4SpanIfEEEEDTcldtfp_4dataEERT_c(ptr noundef nonnull align 8 dereferenceable(16) %3, i8 noundef signext 0) #3
  ret ptr %4
}

; Function Attrs: mustprogress nounwind uwtable
define linkonce_odr noundef ptr @_ZNKSt19__shared_ptr_accessIN10open_spiel9gin_rummy16GinRummyObserverELN9__gnu_cxx12_Lock_policyE2ELb0ELb0EE6_M_getEv(ptr noundef nonnull align 1 dereferenceable(1) %0) #5 comdat align 2 {
  %2 = alloca ptr, align 8
  store ptr %0, ptr %2, align 8
  %3 = load ptr, ptr %2, align 8
  %4 = call noundef ptr @_ZNKSt12__shared_ptrIN10open_spiel9gin_rummy16GinRummyObserverELN9__gnu_cxx12_Lock_policyE2EE3getEv(ptr noundef nonnull align 8 dereferenceable(16) %3) #3
  ret ptr %4
}

; Function Attrs: mustprogress nounwind uwtable
define linkonce_odr noundef ptr @_ZNKSt19__shared_ptr_accessIKN10open_spiel4GameELN9__gnu_cxx12_Lock_policyE2ELb0ELb0EE6_M_getEv(ptr noundef nonnull align 1 dereferenceable(1) %0) #5 comdat align 2 {
  %2 = alloca ptr, align 8
  store ptr %0, ptr %2, align 8
  %3 = load ptr, ptr %2, align 8
  %4 = call noundef ptr @_ZNKSt12__shared_ptrIKN10open_spiel4GameELN9__gnu_cxx12_Lock_policyE2EE3getEv(ptr noundef nonnull align 8 dereferenceable(16) %3) #3
  ret ptr %4
}

; Function Attrs: mustprogress nounwind uwtable
define linkonce_odr void @_ZN10open_spiel9AllocatorD2Ev(ptr noundef nonnull align 8 dereferenceable(8) %0) unnamed_addr #5 comdat align 2 {
  %2 = alloca ptr, align 8
  store ptr %0, ptr %2, align 8
  ret void
}

; Function Attrs: mustprogress uwtable
define linkonce_odr void @_ZN4absl7debian26c_fillINS0_4SpanIfEEiEEvRT_OT0_(ptr noundef nonnull align 8 dereferenceable(16) %0, ptr noundef nonnull align 4 dereferenceable(4) %1) #4 comdat {
  %3 = alloca ptr, align 8
  %4 = alloca ptr, align 8
  store ptr %0, ptr %3, align 8
  store ptr %1, ptr %4, align 8
  %5 = load ptr, ptr %3, align 8
  %6 = call noundef ptr @_ZN4absl7debian228container_algorithm_internal7c_beginINS0_4SpanIfEEEEDTcl5beginclsr3stdE7declvalIRT_EEEES6_(ptr noundef nonnull align 8 dereferenceable(16) %5)
  %7 = load ptr, ptr %3, align 8
  %8 = call noundef ptr @_ZN4absl7debian228container_algorithm_internal5c_endINS0_4SpanIfEEEEDTcl5beginclsr3stdE7declvalIRT_EEEES6_(ptr noundef nonnull align 8 dereferenceable(16) %7)
  %9 = load ptr, ptr %4, align 8
  call void @_ZSt4fillIPfiEvT_S1_RKT0_(ptr noundef %6, ptr noundef %8, ptr noundef nonnull align 4 dereferenceable(4) %9)
  ret void
}

; Function Attrs: mustprogress nounwind uwtable
define linkonce_odr void @_ZN4absl7debian24SpanIfEC2IS2_vS2_EERT_(ptr noundef nonnull align 8 dereferenceable(16) %0, ptr noundef nonnull align 8 dereferenceable(16) %1) unnamed_addr #5 comdat align 2 {
  %3 = alloca ptr, align 8
  %4 = alloca ptr, align 8
  store ptr %0, ptr %3, align 8
  store ptr %1, ptr %4, align 8
  %5 = load ptr, ptr %3, align 8
  %6 = load ptr, ptr %4, align 8
  %7 = call noundef ptr @_ZN4absl7debian213span_internal7GetDataINS0_4SpanIfEEEEDTcl11GetDataImplfp_Li0EEERT_(ptr noundef nonnull align 8 dereferenceable(16) %6) #3
  %8 = load ptr, ptr %4, align 8
  %9 = call noundef i64 @_ZNK4absl7debian24SpanIfE4sizeEv(ptr noundef nonnull align 8 dereferenceable(16) %8) #3
  call void @_ZN4absl7debian24SpanIfEC2EPfm(ptr noundef nonnull align 8 dereferenceable(16) %5, ptr noundef %7, i64 noundef %9) #3
  ret void
}

; Function Attrs: mustprogress nounwind uwtable
define linkonce_odr void @_ZN10open_spiel9AllocatorC2Ev(ptr noundef nonnull align 8 dereferenceable(8) %0) unnamed_addr #5 comdat align 2 {
  %2 = alloca ptr, align 8
  store ptr %0, ptr %2, align 8
  %3 = load ptr, ptr %2, align 8
  store ptr getelementptr inbounds inrange(-16, 24) ({ [5 x ptr] }, ptr @_ZTVN10open_spiel9AllocatorE, i32 0, i32 0, i32 2), ptr %3, align 8
  ret void
}

; Function Attrs: mustprogress nounwind uwtable
define linkonce_odr void @_ZN10open_spiel19ContiguousAllocatorD2Ev(ptr noundef nonnull align 8 dereferenceable(28) %0) unnamed_addr #5 comdat align 2 {
  %2 = alloca ptr, align 8
  store ptr %0, ptr %2, align 8
  %3 = load ptr, ptr %2, align 8
  call void @_ZN10open_spiel9AllocatorD2Ev(ptr noundef nonnull align 8 dereferenceable(8) %3) #3
  ret void
}

; Function Attrs: mustprogress nounwind uwtable
define linkonce_odr noundef ptr @_ZNKSt19__shared_ptr_accessIN10open_spiel9gin_rummy16GinRummyObserverELN9__gnu_cxx12_Lock_policyE2ELb0ELb0EEptEv(ptr noundef nonnull align 1 dereferenceable(1) %0) #5 comdat align 2 {
  %2 = alloca ptr, align 8
  store ptr %0, ptr %2, align 8
  %3 = load ptr, ptr %2, align 8
  %4 = call noundef ptr @_ZNKSt19__shared_ptr_accessIN10open_spiel9gin_rummy16GinRummyObserverELN9__gnu_cxx12_Lock_policyE2ELb0ELb0EE6_M_getEv(ptr noundef nonnull align 1 dereferenceable(1) %3) #3
  ret ptr %4
}

; Function Attrs: mustprogress nounwind uwtable
define linkonce_odr noundef nonnull align 8 dereferenceable(340) ptr @_ZN10open_spiel9down_castIRKNS_9gin_rummy12GinRummyGameEKNS_4GameEEET_RT0_(ptr noundef nonnull align 8 dereferenceable(280) %0) #5 comdat {
  %2 = alloca ptr, align 8
  store ptr %0, ptr %2, align 8
  %3 = load ptr, ptr %2, align 8
  ret ptr %3
}

; Function Attrs: mustprogress nounwind uwtable
define linkonce_odr noundef nonnull align 8 dereferenceable(280) ptr @_ZNKSt19__shared_ptr_accessIKN10open_spiel4GameELN9__gnu_cxx12_Lock_policyE2ELb0ELb0EEdeEv(ptr noundef nonnull align 1 dereferenceable(1) %0) #5 comdat align 2 {
  %2 = alloca ptr, align 8
  store ptr %0, ptr %2, align 8
  %3 = load ptr, ptr %2, align 8
  br label %4

4:                                                ; preds = %1
  br label %5

5:                                                ; preds = %4
  br label %6

6:                                                ; preds = %5
  %7 = call noundef ptr @_ZNKSt19__shared_ptr_accessIKN10open_spiel4GameELN9__gnu_cxx12_Lock_policyE2ELb0ELb0EE6_M_getEv(ptr noundef nonnull align 1 dereferenceable(1) %3) #3
  ret ptr %7
}

; Function Attrs: mustprogress uwtable
define linkonce_odr void @_ZN10open_spiel19ContiguousAllocatorC2EN4absl7debian24SpanIfEE(ptr noundef nonnull align 8 dereferenceable(28) %0, ptr %1, i64 %2) unnamed_addr #4 comdat align 2 personality ptr @__gxx_personality_v0 {
  %4 = alloca %"class.absl::debian2::Span", align 8
  %5 = alloca ptr, align 8
  %6 = alloca i32, align 4
  %7 = alloca ptr, align 8
  %8 = alloca i32, align 4
  %9 = getelementptr inbounds nuw { ptr, i64 }, ptr %4, i32 0, i32 0
  store ptr %1, ptr %9, align 8
  %10 = getelementptr inbounds nuw { ptr, i64 }, ptr %4, i32 0, i32 1
  store i64 %2, ptr %10, align 8
  store ptr %0, ptr %5, align 8
  %11 = load ptr, ptr %5, align 8
  call void @_ZN10open_spiel9AllocatorC2Ev(ptr noundef nonnull align 8 dereferenceable(8) %11) #3
  store ptr getelementptr inbounds inrange(-16, 24) ({ [5 x ptr] }, ptr @_ZTVN10open_spiel19ContiguousAllocatorE, i32 0, i32 0, i32 2), ptr %11, align 8
  %12 = getelementptr inbounds nuw %"class.open_spiel::ContiguousAllocator", ptr %11, i32 0, i32 1
  call void @_ZN4absl7debian24SpanIfEC2IS2_vS2_EERT_(ptr noundef nonnull align 8 dereferenceable(16) %12, ptr noundef nonnull align 8 dereferenceable(16) %4) #3
  %13 = getelementptr inbounds nuw %"class.open_spiel::ContiguousAllocator", ptr %11, i32 0, i32 2
  store i32 0, ptr %13, align 8
  store i32 0, ptr %6, align 4
  invoke void @_ZN4absl7debian26c_fillINS0_4SpanIfEEiEEvRT_OT0_(ptr noundef nonnull align 8 dereferenceable(16) %4, ptr noundef nonnull align 4 dereferenceable(4) %6)
          to label %14 unwind label %15

14:                                               ; preds = %3
  ret void

15:                                               ; preds = %3
  %16 = landingpad { ptr, i32 }
          cleanup
  %17 = extractvalue { ptr, i32 } %16, 0
  store ptr %17, ptr %7, align 8
  %18 = extractvalue { ptr, i32 } %16, 1
  store i32 %18, ptr %8, align 4
  call void @_ZN10open_spiel9AllocatorD2Ev(ptr noundef nonnull align 8 dereferenceable(8) %11) #3
  br label %19

19:                                               ; preds = %15
  %20 = load ptr, ptr %7, align 8
  %21 = load i32, ptr %8, align 4
  %22 = insertvalue { ptr, i32 } poison, ptr %20, 0
  %23 = insertvalue { ptr, i32 } %22, i32 %21, 1
  resume { ptr, i32 } %23
}

; Function Attrs: mustprogress uwtable
define void @_ZNK10open_spiel9gin_rummy13GinRummyState17ObservationTensorEiN4absl7debian24SpanIfEE(ptr noundef nonnull align 8 dereferenceable(528) %0, i32 noundef %1, ptr %2, i64 %3) unnamed_addr #4 align 2 personality ptr @__gxx_personality_v0 {
  %5 = alloca %"class.absl::debian2::Span", align 8
  %6 = alloca ptr, align 8
  %7 = alloca i32, align 4
  %8 = alloca %"class.open_spiel::ContiguousAllocator", align 8
  %9 = alloca %"class.absl::debian2::Span", align 8
  %10 = alloca ptr, align 8
  %11 = alloca ptr, align 8
  %12 = alloca i32, align 4
  %13 = getelementptr inbounds nuw { ptr, i64 }, ptr %5, i32 0, i32 0
  store ptr %2, ptr %13, align 8
  %14 = getelementptr inbounds nuw { ptr, i64 }, ptr %5, i32 0, i32 1
  store i64 %3, ptr %14, align 8
  store ptr %0, ptr %6, align 8
  store i32 %1, ptr %7, align 4
  %15 = load ptr, ptr %6, align 8
  call void @llvm.memcpy.p0.p0.i64(ptr align 8 %9, ptr align 8 %5, i64 16, i1 false)
  %16 = getelementptr inbounds nuw { ptr, i64 }, ptr %9, i32 0, i32 0
  %17 = load ptr, ptr %16, align 8
  %18 = getelementptr inbounds nuw { ptr, i64 }, ptr %9, i32 0, i32 1
  %19 = load i64, ptr %18, align 8
  call void @_ZN10open_spiel19ContiguousAllocatorC2EN4absl7debian24SpanIfEE(ptr noundef nonnull align 8 dereferenceable(28) %8, ptr %17, i64 %19)
  %20 = getelementptr inbounds nuw %"class.open_spiel::State", ptr %15, i32 0, i32 1
  %21 = call noundef nonnull align 8 dereferenceable(280) ptr @_ZNKSt19__shared_ptr_accessIKN10open_spiel4GameELN9__gnu_cxx12_Lock_policyE2ELb0ELb0EEdeEv(ptr noundef nonnull align 1 dereferenceable(1) %20) #3
  %22 = invoke noundef nonnull align 8 dereferenceable(340) ptr @_ZN10open_spiel9down_castIRKNS_9gin_rummy12GinRummyGameEKNS_4GameEEET_RT0_(ptr noundef nonnull align 8 dereferenceable(280) %21)
          to label %23 unwind label %32

23:                                               ; preds = %4
  store ptr %22, ptr %10, align 8
  %24 = load ptr, ptr %10, align 8
  %25 = getelementptr inbounds nuw %"class.open_spiel::gin_rummy::GinRummyGame", ptr %24, i32 0, i32 1
  %26 = call noundef ptr @_ZNKSt19__shared_ptr_accessIN10open_spiel9gin_rummy16GinRummyObserverELN9__gnu_cxx12_Lock_policyE2ELb0ELb0EEptEv(ptr noundef nonnull align 1 dereferenceable(1) %25) #3
  %27 = load i32, ptr %7, align 4
  %28 = load ptr, ptr %26, align 8
  %29 = getelementptr inbounds ptr, ptr %28, i64 0
  %30 = load ptr, ptr %29, align 8
  invoke void %30(ptr noundef nonnull align 8 dereferenceable(20) %26, ptr noundef nonnull align 8 dereferenceable(60) %15, i32 noundef %27, ptr noundef %8)
          to label %31 unwind label %32

31:                                               ; preds = %23
  call void @_ZN10open_spiel19ContiguousAllocatorD2Ev(ptr noundef nonnull align 8 dereferenceable(28) %8) #3
  ret void

32:                                               ; preds = %23, %4
  %33 = landingpad { ptr, i32 }
          cleanup
  %34 = extractvalue { ptr, i32 } %33, 0
  store ptr %34, ptr %11, align 8
  %35 = extractvalue { ptr, i32 } %33, 1
  store i32 %35, ptr %12, align 4
  call void @_ZN10open_spiel19ContiguousAllocatorD2Ev(ptr noundef nonnull align 8 dereferenceable(28) %8) #3
  br label %36

36:                                               ; preds = %32
  %37 = load ptr, ptr %11, align 8
  %38 = load i32, ptr %12, align 4
  %39 = insertvalue { ptr, i32 } poison, ptr %37, 0
  %40 = insertvalue { ptr, i32 } %39, i32 %38, 1
  resume { ptr, i32 } %40
}